target datalayout = "e-m:e-p270:32:32-p271:32:32-p272:64:64-i64:64-i128:128-f80:128-n8:16:32:64-S128"
target triple = "x86_64-unknown-linux-gnu"

%union.pthread_mutex_t = type { %struct.__pthread_mutex_s }
%struct.__pthread_mutex_s = type { i32, i32, i32, i32, i32, i16, i16, %struct.__pthread_internal_list }
%struct.__pthread_internal_list = type { ptr, ptr }
%struct.QTailQLink = type { ptr, ptr }
%struct.QemuMutex = type { %union.pthread_mutex_t, i8 }
%struct.CPUState = type { %struct.DeviceState, ptr, i32, i32, ptr, i32, i8, i8, ptr, i8, i8, i8, i8, i8, i8, i8, i8, i32, i32, i32, i32, i64, i64, i64, [1 x %struct.__jmp_buf_tag], %struct.QemuMutex, %struct.anon.5, ptr, i32, ptr, ptr, ptr, ptr, i32, i32, %union.anon.6, %union.anon.7, %union.anon.8, ptr, ptr, i64, i32, ptr, ptr, ptr, i32, i64, i32, %struct.QemuLockCnt, [1 x i64], ptr, i32, i32, i32, i32, i32, ptr, i8, i8, i64, i8, i8, ptr, [8 x i8], [0 x i8], %struct.CPUNegativeOffsetState }
%struct.DeviceState = type { %struct.Object, ptr, ptr, i8, i8, i64, ptr, i32, i8, ptr, %struct.NamedGPIOListHead, %struct.NamedClockListHead, %struct.BusStateHead, i32, i32, i32, %struct.ResettableState, ptr, %struct.MemReentrancyGuard }
%struct.Object = type { ptr, ptr, ptr, i32, ptr }
%struct.NamedGPIOListHead = type { ptr }
%struct.NamedClockListHead = type { ptr }
%struct.BusStateHead = type { ptr }
%struct.ResettableState = type { i32, i8, i8 }
%struct.MemReentrancyGuard = type { i8 }
%struct.__jmp_buf_tag = type { [8 x i64], i32, %struct.__sigset_t }
%struct.__sigset_t = type { [16 x i64] }
%struct.anon.5 = type { ptr, ptr }
%union.anon.6 = type { %struct.QTailQLink }
%union.anon.7 = type { %struct.QTailQLink }
%union.anon.8 = type { %struct.QTailQLink }
%struct.QemuLockCnt = type { i32 }
%struct.CPUNegativeOffsetState = type { %struct.CPUTLB, %union.IcountDecr, i8, [11 x i8] }
%struct.CPUTLB = type { %struct.CPUTLBCommon, [16 x %struct.CPUTLBDesc], [16 x %struct.CPUTLBDescFast] }
%struct.CPUTLBCommon = type { %struct.QemuSpin, i16, i64, i64, i64 }
%struct.QemuSpin = type { i32 }
%struct.CPUTLBDesc = type { i64, i64, i64, i64, i64, i64, [8 x %union.CPUTLBEntry], [8 x %struct.CPUTLBEntryFull], ptr }
%union.CPUTLBEntry = type { %struct.anon.9 }
%struct.anon.9 = type { i64, i64, i64, i64 }
%struct.CPUTLBEntryFull = type { i64, i64, %struct.MemTxAttrs, i8, i8, [3 x i8], %union.anon.10 }
%struct.MemTxAttrs = type { i32 }
%union.anon.10 = type { %struct.anon.11 }
%struct.anon.11 = type { i8, i8, i8 }
%struct.CPUTLBDescFast = type { i64, ptr }
%union.IcountDecr = type { i32 }
%struct.new_thread_info = type { ptr, %union.pthread_mutex_t, %union.pthread_cond_t, i64, i32, i64, i64, %struct.__sigset_t }
%union.pthread_cond_t = type { %struct.__pthread_cond_s }
%struct.__pthread_cond_s = type { %union.__atomic_wide_counter, %union.__atomic_wide_counter, [2 x i32], [2 x i32], i32, i32, [2 x i32] }
%union.__atomic_wide_counter = type { i64 }

@thread_cpu = external thread_local global ptr, align 8
@clone_lock = internal global %union.pthread_mutex_t zeroinitializer, align 8

; Function Attrs: nounwind sspstrong uwtable
define internal void @stl_he_p(ptr noundef %ptr, i32 noundef %v) #0 {
entry:
  %ptr.addr = alloca ptr, align 8
  %v.addr = alloca i32, align 4
  store ptr %ptr, ptr %ptr.addr, align 8
  store i32 %v, ptr %v.addr, align 4
  %0 = load ptr, ptr %ptr.addr, align 8
  call void @llvm.memcpy.p0.p0.i64(ptr align 1 %0, ptr align 4 %v.addr, i64 4, i1 false)
  ret void
}

; Function Attrs: nounwind sspstrong uwtable
define internal void @unlock_user(ptr noundef %host_ptr, i64 noundef %guest_addr, i64 noundef %len) #0 {
entry:
  %host_ptr.addr = alloca ptr, align 8
  %guest_addr.addr = alloca i64, align 8
  %len.addr = alloca i64, align 8
  store ptr %host_ptr, ptr %host_ptr.addr, align 8
  store i64 %guest_addr, ptr %guest_addr.addr, align 8
  store i64 %len, ptr %len.addr, align 8
  ret void
}

; Function Attrs: nounwind sspstrong uwtable
define internal void @stl_le_p(ptr noundef %ptr, i32 noundef %v) #0 {
entry:
  %ptr.addr = alloca ptr, align 8
  %v.addr = alloca i32, align 4
  store ptr %ptr, ptr %ptr.addr, align 8
  store i32 %v, ptr %v.addr, align 4
  %0 = load ptr, ptr %ptr.addr, align 8
  %1 = load i32, ptr %v.addr, align 4
  call void @stl_he_p(ptr noundef %0, i32 noundef %1)
  ret void
}

; Function Attrs: nounwind sspstrong uwtable
define internal i32 @sys_gettid() #0 {
entry:
  %call = call i64 (i64, ...) @syscall(i64 noundef 186) #14
  %conv = trunc i64 %call to i32
  ret i32 %conv
}

; Function Attrs: nounwind sspstrong uwtable
define internal ptr @env_cpu(ptr noundef %env) #0 {
entry:
  %env.addr = alloca ptr, align 8
  store ptr %env, ptr %env.addr, align 8
  %0 = load ptr, ptr %env.addr, align 8
  %add.ptr = getelementptr i8, ptr %0, i64 -10176
  ret ptr %add.ptr
}

; Function Attrs: nounwind sspstrong uwtable
define internal ptr @clone_func(ptr noundef %arg) #0 {
entry:
  %arg.addr = alloca ptr, align 8
  %info = alloca ptr, align 8
  %env = alloca ptr, align 8
  %cpu = alloca ptr, align 8
  %ts = alloca ptr, align 8
  %__gaddr = alloca i64, align 8
  %__hptr = alloca ptr, align 8
  %__ret = alloca i64, align 8
  %tmp = alloca i64, align 8
  %__gaddr11 = alloca i64, align 8
  %__hptr13 = alloca ptr, align 8
  %__ret14 = alloca i64, align 8
  %tmp23 = alloca i64, align 8
  store ptr %arg, ptr %arg.addr, align 8
  %0 = load ptr, ptr %arg.addr, align 8
  store ptr %0, ptr %info, align 8
  call void @rcu_register_thread()
  call void @tcg_register_thread()
  %1 = load ptr, ptr %info, align 8
  %env1 = getelementptr inbounds %struct.new_thread_info, ptr %1, i32 0, i32 0
  %2 = load ptr, ptr %env1, align 8
  store ptr %2, ptr %env, align 8
  %3 = load ptr, ptr %env, align 8
  %call = call ptr @env_cpu(ptr noundef %3)
  store ptr %call, ptr %cpu, align 8
  %4 = load ptr, ptr %cpu, align 8
  %5 = call align 8 ptr @llvm.threadlocal.address.p0(ptr align 8 @thread_cpu)
  store ptr %4, ptr %5, align 8
  %6 = load ptr, ptr %cpu, align 8
  %opaque = getelementptr inbounds %struct.CPUState, ptr %6, i32 0, i32 39
  %7 = load ptr, ptr %opaque, align 16
  store ptr %7, ptr %ts, align 8
  %call2 = call i32 @sys_gettid()
  %8 = load ptr, ptr %info, align 8
  %tid = getelementptr inbounds %struct.new_thread_info, ptr %8, i32 0, i32 4
  store i32 %call2, ptr %tid, align 8
  %9 = load ptr, ptr %ts, align 8
  call void @task_settid(ptr noundef %9)
  %10 = load ptr, ptr %info, align 8
  %child_tidptr = getelementptr inbounds %struct.new_thread_info, ptr %10, i32 0, i32 5
  %11 = load i64, ptr %child_tidptr, align 8
  %tobool = icmp ne i64 %11, 0
  br i1 %tobool, label %if.then, label %if.end8

if.then:                                          ; preds = %entry
  %12 = load ptr, ptr %info, align 8
  %child_tidptr3 = getelementptr inbounds %struct.new_thread_info, ptr %12, i32 0, i32 5
  %13 = load i64, ptr %child_tidptr3, align 8
  store i64 %13, ptr %__gaddr, align 8
  store i64 0, ptr %__ret, align 8
  %14 = load i64, ptr %__gaddr, align 8
  %call4 = call ptr @lock_user(i32 noundef 3, i64 noundef %14, i64 noundef 4, i1 noundef zeroext false)
  store ptr %call4, ptr %__hptr, align 8
  %tobool5 = icmp ne ptr %call4, null
  br i1 %tobool5, label %if.then6, label %if.else

if.then6:                                         ; preds = %if.then
  br label %do.body

do.body:                                          ; preds = %if.then6
  %15 = load ptr, ptr %__hptr, align 8
  %16 = load ptr, ptr %info, align 8
  %tid7 = getelementptr inbounds %struct.new_thread_info, ptr %16, i32 0, i32 4
  %17 = load i32, ptr %tid7, align 8
  call void @stl_le_p(ptr noundef %15, i32 noundef %17)
  br label %do.end

do.end:                                           ; preds = %do.body
  %18 = load ptr, ptr %__hptr, align 8
  %19 = load i64, ptr %__gaddr, align 8
  call void @unlock_user(ptr noundef %18, i64 noundef %19, i64 noundef 4)
  br label %if.end

if.else:                                          ; preds = %if.then
  store i64 -14, ptr %__ret, align 8
  br label %if.end

if.end:                                           ; preds = %if.else, %do.end
  %20 = load i64, ptr %__ret, align 8
  store i64 %20, ptr %tmp, align 8
  br label %if.end8

if.end8:                                          ; preds = %if.end, %entry
  %21 = load ptr, ptr %info, align 8
  %parent_tidptr = getelementptr inbounds %struct.new_thread_info, ptr %21, i32 0, i32 6
  %22 = load i64, ptr %parent_tidptr, align 8
  %tobool9 = icmp ne i64 %22, 0
  br i1 %tobool9, label %if.then10, label %if.end24

if.then10:                                        ; preds = %if.end8
  %23 = load ptr, ptr %info, align 8
  %parent_tidptr12 = getelementptr inbounds %struct.new_thread_info, ptr %23, i32 0, i32 6
  %24 = load i64, ptr %parent_tidptr12, align 8
  store i64 %24, ptr %__gaddr11, align 8
  store i64 0, ptr %__ret14, align 8
  %25 = load i64, ptr %__gaddr11, align 8
  %call15 = call ptr @lock_user(i32 noundef 3, i64 noundef %25, i64 noundef 4, i1 noundef zeroext false)
  store ptr %call15, ptr %__hptr13, align 8
  %tobool16 = icmp ne ptr %call15, null
  br i1 %tobool16, label %if.then17, label %if.else21

if.then17:                                        ; preds = %if.then10
  br label %do.body18

do.body18:                                        ; preds = %if.then17
  %26 = load ptr, ptr %__hptr13, align 8
  %27 = load ptr, ptr %info, align 8
  %tid19 = getelementptr inbounds %struct.new_thread_info, ptr %27, i32 0, i32 4
  %28 = load i32, ptr %tid19, align 8
  call void @stl_le_p(ptr noundef %26, i32 noundef %28)
  br label %do.end20

do.end20:                                         ; preds = %do.body18
  %29 = load ptr, ptr %__hptr13, align 8
  %30 = load i64, ptr %__gaddr11, align 8
  call void @unlock_user(ptr noundef %29, i64 noundef %30, i64 noundef 4)
  br label %if.end22

if.else21:                                        ; preds = %if.then10
  store i64 -14, ptr %__ret14, align 8
  br label %if.end22

if.end22:                                         ; preds = %if.else21, %do.end20
  %31 = load i64, ptr %__ret14, align 8
  store i64 %31, ptr %tmp23, align 8
  br label %if.end24

if.end24:                                         ; preds = %if.end22, %if.end8
  %32 = load ptr, ptr %cpu, align 8
  %random_seed = getelementptr inbounds %struct.CPUState, ptr %32, i32 0, i32 23
  %33 = load i64, ptr %random_seed, align 16
  call void @qemu_guest_random_seed_thread_part2(i64 noundef %33)
  %34 = load ptr, ptr %info, align 8
  %sigmask = getelementptr inbounds %struct.new_thread_info, ptr %34, i32 0, i32 7
  %call25 = call i32 @sigprocmask(i32 noundef 2, ptr noundef %sigmask, ptr noundef null) #14
  %35 = load ptr, ptr %info, align 8
  %mutex = getelementptr inbounds %struct.new_thread_info, ptr %35, i32 0, i32 1
  %call26 = call i32 @pthread_mutex_lock(ptr noundef %mutex) #14
  %36 = load ptr, ptr %info, align 8
  %cond = getelementptr inbounds %struct.new_thread_info, ptr %36, i32 0, i32 2
  %call27 = call i32 @pthread_cond_broadcast(ptr noundef %cond) #14
  %37 = load ptr, ptr %info, align 8
  %mutex28 = getelementptr inbounds %struct.new_thread_info, ptr %37, i32 0, i32 1
  %call29 = call i32 @pthread_mutex_unlock(ptr noundef %mutex28) #14
  %call30 = call i32 @pthread_mutex_lock(ptr noundef @clone_lock) #14
  %call31 = call i32 @pthread_mutex_unlock(ptr noundef @clone_lock) #14
  %38 = load ptr, ptr %env, align 8
  call void @cpu_loop(ptr noundef %38) #19
  unreachable
}