; Function Attrs: noreturn nounwind sspstrong uwtable
define internal noalias noundef nonnull ptr @clone_func(ptr noundef initializes((104, 108)) %arg) #23 {
entry:
  tail call void @rcu_register_thread() #27
  tail call void @tcg_register_thread() #27
  %0 = load ptr, ptr %arg, align 8
  %add.ptr.i = getelementptr i8, ptr %0, i64 -10176
  %1 = tail call align 8 ptr @llvm.threadlocal.address.p0(ptr align 8 @thread_cpu)
  store ptr %add.ptr.i, ptr %1, align 8
  %opaque = getelementptr i8, ptr %0, i64 -9552
  %2 = load ptr, ptr %opaque, align 16
  %call.i = tail call i64 (i64, ...) @syscall(i64 noundef 186) #27
  %conv.i = trunc i64 %call.i to i32
  %tid = getelementptr inbounds nuw i8, ptr %arg, i64 104
  store i32 %conv.i, ptr %tid, align 8
  tail call void @task_settid(ptr noundef %2) #27
  %child_tidptr = getelementptr inbounds nuw i8, ptr %arg, i64 112
  %3 = load i64, ptr %child_tidptr, align 8
  %tobool.not = icmp eq i64 %3, 0
  br i1 %tobool.not, label %if.end8, label %if.then

if.then:                                          ; preds = %entry
  %call4 = tail call ptr @lock_user(i32 noundef 3, i64 noundef %3, i64 noundef 4, i1 noundef zeroext false) #27
  %tobool5.not = icmp eq ptr %call4, null
  br i1 %tobool5.not, label %if.end8, label %do.body

do.body:                                          ; preds = %if.then
  %4 = load i32, ptr %tid, align 8
  store i32 %4, ptr %call4, align 1
  br label %if.end8

if.end8:                                          ; preds = %do.body, %if.then, %entry
  %parent_tidptr = getelementptr inbounds nuw i8, ptr %arg, i64 120
  %5 = load i64, ptr %parent_tidptr, align 8
  %tobool9.not = icmp eq i64 %5, 0
  br i1 %tobool9.not, label %if.end24, label %if.then10

if.then10:                                        ; preds = %if.end8
  %call15 = tail call ptr @lock_user(i32 noundef 3, i64 noundef %5, i64 noundef 4, i1 noundef zeroext false) #27
  %tobool16.not = icmp eq ptr %call15, null
  br i1 %tobool16.not, label %if.end24, label %do.body18

do.body18:                                        ; preds = %if.then10
  %6 = load i32, ptr %tid, align 8
  store i32 %6, ptr %call15, align 1
  br label %if.end24

if.end24:                                         ; preds = %do.body18, %if.then10, %if.end8
  %random_seed = getelementptr i8, ptr %0, i64 -9936
  %7 = load i64, ptr %random_seed, align 16
  tail call void @qemu_guest_random_seed_thread_part2(i64 noundef %7) #27
  %sigmask = getelementptr inbounds nuw i8, ptr %arg, i64 128
  %call25 = tail call i32 @sigprocmask(i32 noundef 2, ptr noundef nonnull %sigmask, ptr noundef null) #27
  %mutex = getelementptr inbounds nuw i8, ptr %arg, i64 8
  %call26 = tail call i32 @pthread_mutex_lock(ptr noundef nonnull %mutex) #27
  %cond = getelementptr inbounds nuw i8, ptr %arg, i64 48
  %call27 = tail call i32 @pthread_cond_broadcast(ptr noundef nonnull %cond) #27
  %call29 = tail call i32 @pthread_mutex_unlock(ptr noundef nonnull %mutex) #27
  %call30 = tail call i32 @pthread_mutex_lock(ptr noundef nonnull @clone_lock) #27
  %call31 = tail call i32 @pthread_mutex_unlock(ptr noundef nonnull @clone_lock) #27
  tail call void @cpu_loop(ptr noundef nonnull %0) #28
  unreachable
}